Certificate:
    Data:
        Version: 3 (0x2)
        Serial Number: 4096 (0x1000)
        Signature Algorithm: sha256WithRSAEncryption
        Issuer: C=US, ST=NY, O=ACME, OU=ENG, CN=Acme Corporation/emailAddress=acme@vpn.example.com
        Validity
            Not Before: Apr  7 12:04:10 2024 GMT
            Not After : Apr  7 12:04:10 2025 GMT
        Subject: C=US, ST=NY, O=ACME, OU=ENG, CN=Acme Corporation/emailAddress=acme@vpn.example.com
        Subject Public Key Info:
            Public Key Algorithm: rsaEncryption
                Public-Key: (2048 bit)
                Modulus:
                    00:aa:50:42:91:54:43:89:32:29:a6:45:42:5a:e8:
                    4b:79:93:97:c7:5f:cd:85:b8:08:70:c8:91:50:3b:
                    1f:81:39:36:0f:9d:ee:e6:4b:28:da:0d:50:fd:1a:
                    3a:ef:81:39:c0:cc:9f:18:19:5c:59:b9:6a:36:fe:
                    7b:e1:a6:b1:fb:f0:55:25:62:b8:ba:4c:87:66:df:
                    bd:f2:a3:68:ac:a4:d9:c6:3f:89:21:03:78:72:bd:
                    81:b6:02:2b:54:ff:bd:d3:e6:45:62:08:7b:e3:b1:
                    b3:32:e5:67:1a:4d:6d:1a:3f:e4:23:9e:b9:9f:79:
                    1c:f7:7c:1d:09:bd:bc:c3:62:ee:05:f7:c9:80:3e:
                    a4:c7:97:cd:40:5d:20:5c:ca:29:0c:73:e9:17:94:
                    4e:bb:3e:81:2d:8d:a2:08:bc:17:13:8f:4f:b9:40:
                    75:70:ed:92:22:96:ae:6b:18:e3:de:ed:85:9e:4d:
                    a3:9c:32:f8:85:84:2d:7e:fc:0f:da:bb:6e:14:2f:
                    11:35:d0:80:ba:ba:3e:25:79:72:c7:2d:2b:92:2c:
                    3f:a2:d5:3c:59:5d:4f:bc:3d:a5:0d:fd:31:10:ba:
                    6f:f4:a0:86:ac:f7:68:13:18:6f:6a:84:c1:bc:e1:
                    73:32:80:c6:4d:1f:a8:0f:e3:c6:5b:ce:0e:a3:79:
                    83:6f
                Exponent: 65537 (0x10001)
        X509v3 extensions:
            X509v3 Basic Constraints: 
                CA:FALSE
            X509v3 Subject Key Identifier: 
                CF:C1:44:A2:33:F6:30:04:7B:EB:9F:39:F5:EE:13:C8:AF:0E:36:5A
            X509v3 Authority Key Identifier: 
                DirName:/C=US/ST=NY/O=ACME/OU=ENG/CN=Acme Corporation/emailAddress=acme@vpn.example.com
                serial:10:00
    Signature Algorithm: sha256WithRSAEncryption
    Signature Value:
        05:43:68:ef:5f:4f:2a:ec:30:d6:59:25:e2:00:ae:1e:0f:ef:
        fa:ee:c1:6a:58:9b:85:7a:f4:98:ff:f0:e1:82:ab:bc:e8:a3:
        33:f0:94:16:6d:37:d7:3d:b5:35:c2:32:19:60:0d:19:02:d2:
        20:b4:b8:92:88:b1:5e:45:c5:65:43:31:22:3c:f1:af:ff:c4:
        02:96:37:a4:cc:8f:de:24:f8:8a:ed:04:97:10:c7:35:8c:28:
        51:0f:aa:e8:5a:98:e2:b2:42:0d:ba:2d:f7:fd:03:fc:18:5f:
        5b:7e:c4:dc:e5:55:fc:db:4d:ba:b6:bd:2e:eb:03:8f:cc:78:
        32:a6:47:1b:0e:f6:67:d2:43:74:57:08:6f:b8:75:1c:7d:03:
        3a:78:c4:4c:9c:29:c3:eb:ec:91:3f:b5:e9:64:87:95:fb:ae:
        be:98:0a:54:3f:8a:bc:ba:43:79:70:95:cd:9e:49:5d:2e:3c:
        15:d9:ca:e1:7c:70:d4:1f:a8:d6:ab:3f:cf:75:17:0b:a0:56:
        f2:b0:eb:56:70:50:61:1d:c3:d1:45:1f:e6:de:e1:6c:9e:4e:
        b8:22:f0:47:c3:57:75:a8:e4:5f:1b:31:0b:54:b0:6d:4e:18:
        e3:a0:41:f3:ce:80:41:a4:9c:60:7b:48:e2:8e:42:06:af:d5:
        fb:88:7e:13
-----BEGIN CERTIFICATE-----
MIIEJzCCAw+gAwIBAgICEAAwDQYJKoZIhvcNAQELBQAwdzELMAkGA1UEBhMCVVMx
CzAJBgNVBAgMAk5ZMQ0wCwYDVQQKDARBQ01FMQwwCgYDVQQLDANFTkcxGTAXBgNV
BAMMEEFjbWUgQ29ycG9yYXRpb24xIzAhBgkqhkiG9w0BCQEWFGFjbWVAdnBuLmV4
YW1wbGUuY29tMB4XDTI0MDQwNzEyMDQxMFoXDTI1MDQwNzEyMDQxMFowdzELMAkG
A1UEBhMCVVMxCzAJBgNVBAgMAk5ZMQ0wCwYDVQQKDARBQ01FMQwwCgYDVQQLDANF
TkcxGTAXBgNVBAMMEEFjbWUgQ29ycG9yYXRpb24xIzAhBgkqhkiG9w0BCQEWFGFj
bWVAdnBuLmV4YW1wbGUuY29tMIIBIjANBgkqhkiG9w0BAQEFAAOCAQ8AMIIBCgKC
AQEAqlBCkVRDiTIppkVCWuhLeZOXx1/NhbgIcMiRUDsfgTk2D53u5kso2g1Q/Ro6
74E5wMyfGBlcWblqNv574aax+/BVJWK4ukyHZt+98qNorKTZxj+JIQN4cr2BtgIr
VP+90+ZFYgh747GzMuVnGk1tGj/kI565n3kc93wdCb28w2LuBffJgD6kx5fNQF0g
XMopDHPpF5ROuz6BLY2iCLwXE49PuUB1cO2SIpauaxjj3u2Fnk2jnDL4hYQtfvwP
2rtuFC8RNdCAuro+JXlyxy0rkiw/otU8WV1PvD2lDf0xELpv9KCGrPdoExhvaoTB
vOFzMoDGTR+oD+PGW84Oo3mDbwIDAQABo4G8MIG5MAkGA1UdEwQCMAAwHQYDVR0O
BBYEFM/BRKIz9jAEe+ufOfXuE8ivDjZaMIGMBgNVHSMEgYQwgYGhe6R5MHcxCzAJ
BgNVBAYTAlVTMQswCQYDVQQIDAJOWTENMAsGA1UECgwEQUNNRTEMMAoGA1UECwwD
RU5HMRkwFwYDVQQDDBBBY21lIENvcnBvcmF0aW9uMSMwIQYJKoZIhvcNAQkBFhRh
Y21lQHZwbi5leGFtcGxlLmNvbYICEAAwDQYJKoZIhvcNAQELBQADggEBAAVDaO9f
TyrsMNZZJeIArh4P7/ruwWpYm4V69Jj/8OGCq7zoozPwlBZtN9c9tTXCMhlgDRkC
0iC0uJKIsV5FxWVDMSI88a//xAKWN6TMj94k+IrtBJcQxzWMKFEPquhamOKyQg26
Lff9A/wYX1t+xNzlVfzbTbq2vS7rA4/MeDKmRxsO9mfSQ3RXCG+4dRx9Azp4xEyc
KcPr7JE/telkh5X7rr6YClQ/iry6Q3lwlc2eSV0uPBXZyuF8cNQfqNarP891Fwug
VvKw61ZwUGEdw9FFH+be4WyeTrgi8EfDV3Wo5F8bMQtUsG1OGOOgQfPOgEGknGB7
SOKOQgav1fuIfhM=
-----END CERTIFICATE-----
