Certificate:
    Data:
        Version: 3 (0x2)
        Serial Number: 4097 (0x1001)
        Signature Algorithm: sha256WithRSAEncryption
        Issuer: C=US, ST=NY, O=ACME, OU=ENG, CN=Acme Corporation/emailAddress=acme@vpn.example.com
        Validity
            Not Before: Apr  7 12:09:08 2024 GMT
            Not After : Apr  7 12:09:08 2025 GMT
        Subject: C=US, ST=NY, O=ACME, OU=ENG, CN=Acme Corporation/emailAddress=bob@vpn.example.com
        Subject Public Key Info:
            Public Key Algorithm: rsaEncryption
                Public-Key: (2048 bit)
                Modulus:
                    00:b6:86:d2:81:fc:7a:de:44:b9:ee:4a:e6:02:d3:
                    87:b3:d6:69:05:3d:76:f4:05:05:44:b2:22:60:c7:
                    7f:7a:0e:22:52:83:99:b8:f4:11:64:c4:b5:f4:2b:
                    d0:80:cd:91:01:dd:ab:d8:83:71:45:83:1a:22:8a:
                    47:e5:1b:39:16:96:58:3e:b7:7d:8e:a5:c9:24:d7:
                    92:bd:7d:42:5b:ab:1f:9c:d8:4e:57:35:c8:9d:c6:
                    f4:1b:c8:e2:2b:13:36:b5:2f:a5:b3:72:88:38:d7:
                    01:8d:3c:e6:9e:c2:fa:e3:85:38:3d:ea:26:7d:13:
                    01:4b:35:0f:96:7e:62:84:79:f1:47:8e:04:70:09:
                    aa:c1:03:a0:8e:78:90:04:c5:da:51:65:e0:84:3f:
                    ad:f1:f3:de:eb:37:33:a5:d4:1e:5d:43:78:95:6c:
                    a3:7a:3d:16:d6:69:47:ba:bb:fd:38:07:d5:b8:46:
                    ab:a2:b9:e3:bb:b9:16:f8:dd:46:91:c6:91:ff:b7:
                    72:8d:77:1b:cc:73:ed:35:72:7e:21:53:b3:e0:f4:
                    cc:0c:e1:b7:f4:80:18:94:5d:58:20:96:06:05:e6:
                    2b:a1:9d:66:b5:24:cb:6d:76:66:34:4c:6e:ec:fd:
                    b8:6d:8b:62:91:55:84:b3:f4:d2:68:79:95:35:75:
                    b1:7b
                Exponent: 65537 (0x10001)
        X509v3 extensions:
            X509v3 Basic Constraints: 
                CA:FALSE
            X509v3 Subject Key Identifier: 
                2C:F5:70:51:94:B6:5D:D7:EB:4E:1E:86:27:4B:65:85:B7:A9:C8:11
            X509v3 Authority Key Identifier: 
                CF:C1:44:A2:33:F6:30:04:7B:EB:9F:39:F5:EE:13:C8:AF:0E:36:5A
    Signature Algorithm: sha256WithRSAEncryption
    Signature Value:
        93:a4:48:25:a7:fa:ea:07:5b:ed:ec:9f:bb:a6:aa:66:2d:62:
        8a:f3:c1:96:53:a2:b9:3e:87:1b:01:ae:48:b5:b8:a6:e8:00:
        ae:99:3a:a6:e9:e7:be:f3:76:4c:51:68:91:cc:ec:97:c3:ee:
        f4:40:d2:50:db:f5:c0:88:cf:39:13:14:16:fc:a6:5d:c3:c5:
        e6:48:7e:d6:34:88:5f:45:60:27:a1:f7:3b:a1:79:31:a9:af:
        58:b5:07:7a:97:5f:9f:65:8f:bb:7c:7d:35:35:7c:6e:a2:30:
        3e:0f:e5:8b:ab:9b:bd:2e:fe:c6:83:b5:b3:d1:0a:a6:e3:91:
        41:0c:13:22:be:a7:5c:17:ed:c9:cf:89:42:32:91:c0:f0:b4:
        23:96:f1:d6:02:f8:2e:75:56:ff:15:80:b9:e3:98:c8:0b:2f:
        c5:53:19:bf:88:e4:61:b0:3c:4c:f6:e1:28:31:24:51:dc:83:
        c7:02:bd:eb:6d:9b:de:34:dc:7d:ae:37:1c:21:91:89:32:46:
        fa:b0:04:19:b2:88:55:01:44:8a:92:8e:4c:2f:d3:60:ac:02:
        7b:51:03:46:d9:e3:e3:36:e0:17:b7:22:94:7a:3d:bc:0c:c2:
        b0:1b:e3:f4:bc:36:6c:a8:93:90:9f:10:c9:7d:01:1e:ce:b0:
        5b:66:c7:1b
-----BEGIN CERTIFICATE-----
MIIDtjCCAp6gAwIBAgICEAEwDQYJKoZIhvcNAQELBQAwdzELMAkGA1UEBhMCVVMx
CzAJBgNVBAgMAk5ZMQ0wCwYDVQQKDARBQ01FMQwwCgYDVQQLDANFTkcxGTAXBgNV
BAMMEEFjbWUgQ29ycG9yYXRpb24xIzAhBgkqhkiG9w0BCQEWFGFjbWVAdnBuLmV4
YW1wbGUuY29tMB4XDTI0MDQwNzEyMDkwOFoXDTI1MDQwNzEyMDkwOFowdjELMAkG
A1UEBhMCVVMxCzAJBgNVBAgMAk5ZMQ0wCwYDVQQKDARBQ01FMQwwCgYDVQQLDANF
TkcxGTAXBgNVBAMMEEFjbWUgQ29ycG9yYXRpb24xIjAgBgkqhkiG9w0BCQEWE2Jv
YkB2cG4uZXhhbXBsZS5jb20wggEiMA0GCSqGSIb3DQEBAQUAA4IBDwAwggEKAoIB
AQC2htKB/HreRLnuSuYC04ez1mkFPXb0BQVEsiJgx396DiJSg5m49BFkxLX0K9CA
zZEB3avYg3FFgxoiikflGzkWllg+t32Opckk15K9fUJbqx+c2E5XNcidxvQbyOIr
Eza1L6Wzcog41wGNPOaewvrjhTg96iZ9EwFLNQ+WfmKEefFHjgRwCarBA6COeJAE
xdpRZeCEP63x897rNzOl1B5dQ3iVbKN6PRbWaUe6u/04B9W4RquiueO7uRb43UaR
xpH/t3KNdxvMc+01cn4hU7Pg9MwM4bf0gBiUXVgglgYF5iuhnWa1JMttdmY0TG7s
/bhti2KRVYSz9NJoeZU1dbF7AgMBAAGjTTBLMAkGA1UdEwQCMAAwHQYDVR0OBBYE
FCz1cFGUtl3X604ehidLZYW3qcgRMB8GA1UdIwQYMBaAFM/BRKIz9jAEe+ufOfXu
E8ivDjZaMA0GCSqGSIb3DQEBCwUAA4IBAQCTpEglp/rqB1vt7J+7pqpmLWKK88GW
U6K5PocbAa5Itbim6ACumTqm6ee+83ZMUWiRzOyXw+70QNJQ2/XAiM85ExQW/KZd
w8XmSH7WNIhfRWAnofc7oXkxqa9YtQd6l1+fZY+7fH01NXxuojA+D+WLq5u9Lv7G
g7Wz0Qqm45FBDBMivqdcF+3Jz4lCMpHA8LQjlvHWAvgudVb/FYC545jICy/FUxm/
iORhsDxM9uEoMSRR3IPHAr3rbZveNNx9rjccIZGJMkb6sAQZsohVAUSKko5ML9Ng
rAJ7UQNG2ePjNuAXtyKUej28DMKwG+P0vDZsqJOQnxDJfQEezrBbZscb
-----END CERTIFICATE-----
